; Function Attrs: mustprogress nofree norecurse nounwind willreturn memory(readwrite, inaccessiblemem: none) uwtable
define void @_ZNK8QuantLib17StrippedOptionlet10dayCounterEv(ptr dead_on_unwind noalias nocapture writable writeonly sret(%"class.QuantLib::DayCounter") align 8 %agg.result, ptr nocapture noundef nonnull readonly align 8 dereferenceable(240) %this) unnamed_addr #12 align 2 personality ptr @__gxx_personality_v0 {
entry:
  %dc_ = getelementptr inbounds nuw i8, ptr %this, i64 40
  %0 = load ptr, ptr %dc_, align 8, !tbaa !57
  store ptr %0, ptr %agg.result, align 8, !tbaa !57
  %pn.i.i = getelementptr inbounds nuw i8, ptr %agg.result, i64 8
  %pn3.i.i = getelementptr inbounds nuw i8, ptr %this, i64 48
  %1 = load ptr, ptr %pn3.i.i, align 8, !tbaa !42
  store ptr %1, ptr %pn.i.i, align 8, !tbaa !42
  %cmp.not.i.i.i = icmp eq ptr %1, null
  br i1 %cmp.not.i.i.i, label %_ZN8QuantLib10DayCounterC2ERKS0_.exit, label %if.then.i.i.i

if.then.i.i.i:                                    ; preds = %entry
  %use_count_.i.i.i.i = getelementptr inbounds nuw i8, ptr %1, i64 8
  %2 = atomicrmw add ptr %use_count_.i.i.i.i, i32 1 monotonic, align 4
  br label %_ZN8QuantLib10DayCounterC2ERKS0_.exit

_ZN8QuantLib10DayCounterC2ERKS0_.exit:            ; preds = %entry, %if.then.i.i.i
  ret void
}